target datalayout = "e-m:e-p270:32:32-p271:32:32-p272:64:64-i64:64-i128:128-f80:128-n8:16:32:64-S128"
target triple = "x86_64-unknown-linux-gnu"

%struct.redisOptions = type { i32, i32, ptr, ptr, %union.anon, ptr, ptr, ptr, ptr }
%union.anon = type { %struct.anon }
%struct.anon = type { ptr, ptr, i32 }

; Function Attrs: nounwind uwtable
define ptr @redisAsyncConnectUnix(ptr noundef %path) #0 {
entry:
  %path.addr = alloca ptr, align 8
  %options = alloca %struct.redisOptions, align 8
  store ptr %path, ptr %path.addr, align 8
  call void @llvm.memset.p0.i64(ptr align 8 %options, i8 0, i64 80, i1 false)
  br label %do.body

do.body:                                          ; preds = %entry
  %type = getelementptr inbounds %struct.redisOptions, ptr %options, i32 0, i32 0
  store i32 1, ptr %type, align 8
  %0 = load ptr, ptr %path.addr, align 8
  %endpoint = getelementptr inbounds %struct.redisOptions, ptr %options, i32 0, i32 4
  store ptr %0, ptr %endpoint, align 8
  br label %do.end

do.end:                                           ; preds = %do.body
  %call = call ptr @redisAsyncConnectWithOptions(ptr noundef %options)
  ret ptr %call
}