; Function Attrs: nounwind uwtable
define ptr @redisAsyncConnectUnix(ptr noundef %path) local_unnamed_addr #0 {
entry:
  %options = alloca %struct.redisOptions, align 8
  call void @llvm.memset.p0.i64(ptr noundef nonnull align 8 dereferenceable(80) %options, i8 0, i64 80, i1 false)
  store i32 1, ptr %options, align 8
  %endpoint = getelementptr inbounds i8, ptr %options, i64 24
  store ptr %path, ptr %endpoint, align 8
  %call = call ptr @redisAsyncConnectWithOptions(ptr noundef nonnull %options)
  ret ptr %call
}